
Memory Configuration

Name             Origin             Length             Attributes
*default*        0x0000000000000000 0xffffffffffffffff

Linker script and memory map


.text           0x0000000000000000      0x9b2
 .text          0x0000000000000000      0x190 tmp/i386-linux.elf-fold.o
                0x0000000000000008                get_page_mask
                0x0000000000000015                get_upxfn_path
 .text          0x0000000000000190        0x0 tmp/i386-expand.o
 .text          0x0000000000000190      0x822 tmp/i386-linux.elf-main2.o
                0x00000000000002e5                underlay
                0x000000000000085e                upx_main

UMF_ANDROID     0x0000000000000000      0x4e2
 UMF_ANDROID    0x0000000000000000      0x4e2 tmp/i386-linux.elf-upxfd_android.o
                0x0000000000000000                upx_mmap_and_fd_android

UMF_LINUX       0x0000000000000000       0xab
 UMF_LINUX      0x0000000000000000       0xab tmp/i386-linux.elf-upxfd_linux.o
                0x0000000000000000                upx_mmap_and_fd_linux

.data           0x0000000000000000        0x0
 .data          0x0000000000000000        0x0 tmp/i386-linux.elf-fold.o
 .data          0x0000000000000000        0x0 tmp/i386-expand.o
 .data          0x0000000000000000        0x0 tmp/i386-linux.elf-main2.o

.bss            0x0000000000000000        0x0
 .bss           0x0000000000000000        0x0 tmp/i386-linux.elf-fold.o
 .bss           0x0000000000000000        0x0 tmp/i386-expand.o
 .bss           0x0000000000000000        0x0 tmp/i386-linux.elf-main2.o
TARGET(elf32-i386)
                0x0000000000000034                . = SIZEOF_HEADERS
LOAD tmp/i386-linux.elf-fold.o
LOAD tmp/i386-linux.elf-upxfd_android.o
LOAD tmp/i386-linux.elf-upxfd_linux.o
LOAD tmp/i386-expand.o
LOAD tmp/i386-linux.elf-main2.o
OUTPUT(tmp/i386-linux.elf-fold.bin elf32-i386)

SYSCALLS        0x0000000000000000       0xd8
 SYSCALLS       0x0000000000000000       0xd8 tmp/i386-linux.elf-fold.o
                0x00000000000000a7                memcpy
                0x00000000000000bd                mempcpy
                0x000000000000002b                mmap
                0x000000000000006e                uname
                0x0000000000000093                memset
                0x00000000000000d3                my_bkpt
                0x0000000000000000                Pprotect
                0x000000000000005a                stat
                0x000000000000007f                mkdir

EXP_HEAD        0x0000000000000000      0x10b
 EXP_HEAD       0x0000000000000000      0x10b tmp/i386-expand.o
                0x0000000000000067                f_expand
                0x0000000000000097                __clear_cache

EXP_TAIL        0x0000000000000000       0x10
 EXP_TAIL       0x0000000000000000       0x10 tmp/i386-expand.o
                0x0000000000000010                upx_mmap_and_fd

NRV2E           0x0000000000000000       0xd4
 NRV2E          0x0000000000000000       0xd4 tmp/i386-expand.o

NRV2D           0x0000000000000000       0xc8
 NRV2D          0x0000000000000000       0xc8 tmp/i386-expand.o

NRV2B           0x0000000000000000       0xb4
 NRV2B          0x0000000000000000       0xb4 tmp/i386-expand.o

LZMA_DAISY      0x0000000000000000        0xc
 LZMA_DAISY     0x0000000000000000        0xc tmp/i386-expand.o

LZMA_DEC00      0x0000000000000000       0x36
 LZMA_DEC00     0x0000000000000000       0x36 tmp/i386-expand.o

LZMA_ELF00      0x0000000000000000       0x48
 LZMA_ELF00     0x0000000000000000       0x48 tmp/i386-expand.o

LZMA_DEC10      0x0000000000000000      0xb3e
 LZMA_DEC10     0x0000000000000000      0xb3e tmp/i386-expand.o

LZMA_DEC20      0x0000000000000000      0xb3e
 LZMA_DEC20     0x0000000000000000      0xb3e tmp/i386-expand.o

LZMA_DEC30      0x0000000000000000       0x20
 LZMA_DEC30     0x0000000000000000       0x20 tmp/i386-expand.o
