
Memory Configuration

Name             Origin             Length             Attributes
*default*        0x0000000000000000 0xffffffffffffffff

Linker script and memory map

TARGET(elf64-powerpc)

.text           0x0000000000000000      0xdd4
 *(.text)
 .text          0x0000000000000000      0xdd4 tmp/powerpc64-linux.elf-fold.o
                0x0000000000000014                get_page_mask
                0x000000000000002c                Pprotect
                0x0000000000000050                Pmap
                0x0000000000000074                Punmap
                0x0000000000000bb0                underlay
                0x0000000000000c3c                upx_main
 *(.data)
 .data          0x0000000000000dd4        0x0 tmp/powerpc64-linux.elf-fold.o

.data
LOAD tmp/powerpc64-linux.elf-fold.o
OUTPUT(tmp/powerpc64-linux.elf-fold.bin elf64-powerpc)

.bss            0x0000000000000000        0x0
 .bss           0x0000000000000000        0x0 tmp/powerpc64-linux.elf-fold.o

SYSCALLS        0x0000000000000000       0xf4
 SYSCALLS       0x0000000000000000       0xf4 tmp/powerpc64-linux.elf-fold.o
                0x0000000000000008                mmap
                0x0000000000000020                munmap
                0x0000000000000028                mprotect
                0x0000000000000030                memfd_create
                0x0000000000000038                ftruncate
                0x0000000000000040                exit
                0x0000000000000048                brk
                0x0000000000000050                readlink
                0x0000000000000058                write
                0x0000000000000060                read
                0x0000000000000068                open
                0x0000000000000070                close
                0x0000000000000078                upxfd_create
                0x00000000000000d0                memcpy
                0x00000000000000ec                my_bkpt

.comment        0x0000000000000000       0x33
 .comment       0x0000000000000000       0x33 tmp/powerpc64-linux.elf-fold.o

.note.GNU-stack
                0x0000000000000000        0x0
 .note.GNU-stack
                0x0000000000000000        0x0 tmp/powerpc64-linux.elf-fold.o

EXP_HEAD        0x0000000000000000       0xa8
 EXP_HEAD       0x0000000000000000       0xa8 tmp/powerpc64-linux.elf-fold.o
                0x0000000000000000                f_expand

EXP_TAIL        0x0000000000000000       0x8c
 EXP_TAIL       0x0000000000000000       0x8c tmp/powerpc64-linux.elf-fold.o
                0x0000000000000008                eof_nrv

NRV2E           0x0000000000000000      0x154
 NRV2E          0x0000000000000000      0x154 tmp/powerpc64-linux.elf-fold.o

NRV2D           0x0000000000000000      0x13c
 NRV2D          0x0000000000000000      0x13c tmp/powerpc64-linux.elf-fold.o

NRV2B           0x0000000000000000       0xf8
 NRV2B          0x0000000000000000       0xf8 tmp/powerpc64-linux.elf-fold.o

LZMA_ELF00      0x0000000000000000       0xa0
 LZMA_ELF00     0x0000000000000000       0xa0 tmp/powerpc64-linux.elf-fold.o

LZMA_DEC30      0x0000000000000000       0x2c
 LZMA_DEC30     0x0000000000000000       0x2c tmp/powerpc64-linux.elf-fold.o

LZMA_DEC10      0x0000000000000000      0xbb8
 LZMA_DEC10     0x0000000000000000      0xbb8 tmp/powerpc64-linux.elf-fold.o

LZMA_DEC20      0x0000000000000000      0xc6c
 LZMA_DEC20     0x0000000000000000      0xc6c tmp/powerpc64-linux.elf-fold.o
