
Memory Configuration

Name             Origin             Length             Attributes
*default*        0x0000000000000000 0xffffffffffffffff

Linker script and memory map

TARGET(elf32-powerpc)
                0x0000000000000034                . = SIZEOF_HEADERS

.text           0x0000000000000034     0x13e0
 *(.text)
 .text          0x0000000000000034      0x294 tmp/powerpc-linux.elf-fold.o
                0x000000000000007c                Pmap
                0x0000000000000040                get_page_mask
                0x0000000000000058                Pprotect
                0x00000000000000a0                Punmap
 .text          0x00000000000002c8      0x108 tmp/powerpc-linux.elf-upxfd_linux.o
                0x00000000000002c8                upx_mmap_and_fd_linux
 .text          0x00000000000003d0        0x0 tmp/powerpc-expand.o
 .text          0x00000000000003d0     0x1044 tmp/powerpc-linux.elf-main2.o
                0x00000000000008c8                underlay
                0x0000000000001200                upx_main
 *(.data)
 .data          0x0000000000001414        0x0 tmp/powerpc-linux.elf-fold.o
 .data          0x0000000000001414        0x0 tmp/powerpc-expand.o
 .data          0x0000000000001414        0x0 tmp/powerpc-linux.elf-main2.o

.data

.bss            0x0000000000000000        0x0
 .bss           0x0000000000000000        0x0 tmp/powerpc-linux.elf-fold.o
 .bss           0x0000000000000000        0x0 tmp/powerpc-expand.o
 .bss           0x0000000000000000        0x0 tmp/powerpc-linux.elf-main2.o
LOAD tmp/powerpc-linux.elf-fold.o
LOAD tmp/powerpc-linux.elf-upxfd_linux.o
LOAD tmp/powerpc-expand.o
LOAD tmp/powerpc-linux.elf-main2.o
OUTPUT(tmp/powerpc-linux.elf-fold.bin elf32-powerpc)

SYSCALLS        0x0000000000000000       0xb8
 SYSCALLS       0x0000000000000000       0xb8 tmp/powerpc-linux.elf-fold.o
                0x0000000000000054                munmap
                0x0000000000000000                upx_mmap_and_fd
                0x0000000000000070                memcpy
                0x0000000000000014                readlink
                0x0000000000000024                ftruncate
                0x000000000000005c                mmap
                0x0000000000000034                write
                0x000000000000001c                memfd_create
                0x000000000000003c                read
                0x0000000000000094                memset
                0x00000000000000b0                my_bkpt
                0x0000000000000004                exit
                0x000000000000000c                brk
                0x0000000000000044                open
                0x000000000000004c                mprotect
                0x000000000000002c                close

EXP_HEAD        0x0000000000000000       0xa8
 EXP_HEAD       0x0000000000000000       0xa8 tmp/powerpc-expand.o
                0x0000000000000000                f_expand

EXP_TAIL        0x0000000000000000       0x8c
 EXP_TAIL       0x0000000000000000       0x8c tmp/powerpc-expand.o
                0x0000000000000008                eof_nrv

NRV2E           0x0000000000000000      0x154
 NRV2E          0x0000000000000000      0x154 tmp/powerpc-expand.o

NRV2D           0x0000000000000000      0x138
 NRV2D          0x0000000000000000      0x138 tmp/powerpc-expand.o

NRV2B           0x0000000000000000       0xfc
 NRV2B          0x0000000000000000       0xfc tmp/powerpc-expand.o

LZMA_DAISY      0x0000000000000000        0x8
 LZMA_DAISY     0x0000000000000000        0x8 tmp/powerpc-expand.o

LZMA_ELF00      0x0000000000000000       0x88
 LZMA_ELF00     0x0000000000000000       0x88 tmp/powerpc-expand.o

LZMA_DEC10      0x0000000000000000      0x99c
 LZMA_DEC10     0x0000000000000000      0x99c tmp/powerpc-expand.o

LZMA_DEC20      0x0000000000000000      0x99c
 LZMA_DEC20     0x0000000000000000      0x99c tmp/powerpc-expand.o

LZMA_DEC30      0x0000000000000000       0x28
 LZMA_DEC30     0x0000000000000000       0x28 tmp/powerpc-expand.o
